target datalayout = "e-m:e-p270:32:32-p271:32:32-p272:64:64-i64:64-i128:128-f80:128-n8:16:32:64-S128"
target triple = "x86_64-pc-linux-gnu"

%"class.Json::Value" = type { %"union.Json::Value::ValueHolder", %struct.anon, %"class.Json::Value::Comments", i64, i64 }
%"union.Json::Value::ValueHolder" = type { i64 }
%struct.anon = type { i16, [2 x i8] }
%"class.Json::Value::Comments" = type { %"class.std::unique_ptr" }
%"class.std::unique_ptr" = type { %"struct.std::__uniq_ptr_data" }
%"struct.std::__uniq_ptr_data" = type { %"class.std::__uniq_ptr_impl" }
%"class.std::__uniq_ptr_impl" = type { %"class.std::tuple" }
%"class.std::tuple" = type { %"struct.std::_Tuple_impl" }
%"struct.std::_Tuple_impl" = type { %"struct.std::_Head_base.1" }
%"struct.std::_Head_base.1" = type { ptr }

@__dso_handle = external hidden global i8
@_ZZN4Json5Value13nullSingletonEvE10nullStatic = internal global %"class.Json::Value" zeroinitializer, align 8
@_ZGVZN4Json5Value13nullSingletonEvE10nullStatic = internal global i64 0, align 8
@_ZN4Json5ValueC1ENS_9ValueTypeE = dso_local unnamed_addr alias void (ptr, i32), ptr @_ZN4Json5ValueC2ENS_9ValueTypeE
@_ZN4Json5ValueD1Ev = dso_local unnamed_addr alias void (ptr), ptr @_ZN4Json5ValueD2Ev

; Function Attrs: mustprogress uwtable
define dso_local noundef nonnull align 8 dereferenceable(40) ptr @_ZN4Json5Value13nullSingletonEv() #4 align 2 personality ptr @__gxx_personality_v0 {
  %1 = alloca ptr, align 8
  %2 = alloca i32, align 4
  %3 = load atomic i8, ptr @_ZGVZN4Json5Value13nullSingletonEvE10nullStatic acquire, align 8
  %4 = icmp eq i8 %3, 0
  br i1 %4, label %5, label %11, !prof !5

5:                                                ; preds = %0
  %6 = call i32 @__cxa_guard_acquire(ptr @_ZGVZN4Json5Value13nullSingletonEvE10nullStatic) #3
  %7 = icmp ne i32 %6, 0
  br i1 %7, label %8, label %11

8:                                                ; preds = %5
  invoke void @_ZN4Json5ValueC1ENS_9ValueTypeE(ptr noundef nonnull align 8 dereferenceable(40) @_ZZN4Json5Value13nullSingletonEvE10nullStatic, i32 noundef 0)
          to label %9 unwind label %12

9:                                                ; preds = %8
  %10 = call i32 @__cxa_atexit(ptr @_ZN4Json5ValueD1Ev, ptr @_ZZN4Json5Value13nullSingletonEvE10nullStatic, ptr @__dso_handle) #3
  call void @__cxa_guard_release(ptr @_ZGVZN4Json5Value13nullSingletonEvE10nullStatic) #3
  br label %11

11:                                               ; preds = %9, %5, %0
  ret ptr @_ZZN4Json5Value13nullSingletonEvE10nullStatic

12:                                               ; preds = %8
  %13 = landingpad { ptr, i32 }
          cleanup
  %14 = extractvalue { ptr, i32 } %13, 0
  store ptr %14, ptr %1, align 8
  %15 = extractvalue { ptr, i32 } %13, 1
  store i32 %15, ptr %2, align 4
  call void @__cxa_guard_abort(ptr @_ZGVZN4Json5Value13nullSingletonEvE10nullStatic) #3
  br label %16

16:                                               ; preds = %12
  %17 = load ptr, ptr %1, align 8
  %18 = load i32, ptr %2, align 4
  %19 = insertvalue { ptr, i32 } poison, ptr %17, 0
  %20 = insertvalue { ptr, i32 } %19, i32 %18, 1
  resume { ptr, i32 } %20
}

; Function Attrs: mustprogress uwtable
define dso_local noundef nonnull align 8 dereferenceable(40) ptr @_ZNK4Json5ValueixEPKc(ptr noundef nonnull align 8 dereferenceable(40) %0, ptr noundef %1) #4 align 2 {
  %3 = alloca ptr, align 8
  %4 = alloca ptr, align 8
  %5 = alloca ptr, align 8
  %6 = alloca ptr, align 8
  store ptr %0, ptr %4, align 8
  store ptr %1, ptr %5, align 8
  %7 = load ptr, ptr %4, align 8
  %8 = load ptr, ptr %5, align 8
  %9 = load ptr, ptr %5, align 8
  %10 = load ptr, ptr %5, align 8
  %11 = call i64 @strlen(ptr noundef %10) #17
  %12 = getelementptr inbounds i8, ptr %9, i64 %11
  %13 = call noundef ptr @_ZNK4Json5Value4findEPKcS2_(ptr noundef nonnull align 8 dereferenceable(40) %7, ptr noundef %8, ptr noundef %12)
  store ptr %13, ptr %6, align 8
  %14 = load ptr, ptr %6, align 8
  %15 = icmp ne ptr %14, null
  br i1 %15, label %18, label %16

16:                                               ; preds = %2
  %17 = call noundef nonnull align 8 dereferenceable(40) ptr @_ZN4Json5Value13nullSingletonEv()
  store ptr %17, ptr %3, align 8
  br label %20

18:                                               ; preds = %2
  %19 = load ptr, ptr %6, align 8
  store ptr %19, ptr %3, align 8
  br label %20

20:                                               ; preds = %18, %16
  %21 = load ptr, ptr %3, align 8
  ret ptr %21
}