; Function Attrs: mustprogress uwtable
define dso_local noundef nonnull align 8 dereferenceable(40) ptr @_ZNK4Json5ValueixEPKc(ptr nocapture noundef nonnull readonly align 8 dereferenceable(40) %0, ptr noundef %1) local_unnamed_addr #10 align 2 personality ptr @__gxx_personality_v0 {
  %3 = tail call i64 @strlen(ptr noundef nonnull dereferenceable(1) %1) #36
  %4 = getelementptr inbounds i8, ptr %1, i64 %3
  %5 = tail call noundef ptr @_ZNK4Json5Value4findEPKcS2_(ptr noundef nonnull align 8 dereferenceable(40) %0, ptr noundef %1, ptr noundef %4)
  %.not = icmp eq ptr %5, null
  br i1 %.not, label %6, label %_ZN4Json5Value13nullSingletonEv.exit

6:                                                ; preds = %2
  %7 = load atomic i8, ptr @_ZGVZN4Json5Value13nullSingletonEvE10nullStatic acquire, align 8
  %8 = icmp eq i8 %7, 0
  br i1 %8, label %9, label %_ZN4Json5Value13nullSingletonEv.exit, !prof !5

9:                                                ; preds = %6
  %10 = tail call i32 @__cxa_guard_acquire(ptr nonnull @_ZGVZN4Json5Value13nullSingletonEvE10nullStatic) #35
  %.not.i = icmp eq i32 %10, 0
  br i1 %.not.i, label %_ZN4Json5Value13nullSingletonEv.exit, label %11

11:                                               ; preds = %9
  %12 = load i16, ptr getelementptr inbounds (%"class.Json::Value", ptr @_ZZN4Json5Value13nullSingletonEvE10nullStatic, i64 0, i32 1, i32 0), align 8
  %13 = and i16 %12, -512
  store i16 %13, ptr getelementptr inbounds (%"class.Json::Value", ptr @_ZZN4Json5Value13nullSingletonEvE10nullStatic, i64 0, i32 1, i32 0), align 8
  tail call void @llvm.memset.p0.i64(ptr noundef nonnull align 8 dereferenceable(24) getelementptr inbounds (%"class.Json::Value", ptr @_ZZN4Json5Value13nullSingletonEvE10nullStatic, i64 0, i32 2, i32 0, i32 0, i32 0, i32 0, i32 0, i32 0, i32 0), i8 0, i64 24, i1 false)
  %14 = tail call i32 @__cxa_atexit(ptr nonnull @_ZN4Json5ValueD2Ev, ptr nonnull @_ZZN4Json5Value13nullSingletonEvE10nullStatic, ptr nonnull @__dso_handle) #35
  tail call void @__cxa_guard_release(ptr nonnull @_ZGVZN4Json5Value13nullSingletonEvE10nullStatic) #35
  br label %_ZN4Json5Value13nullSingletonEv.exit

_ZN4Json5Value13nullSingletonEv.exit:             ; preds = %11, %9, %6, %2
  %.0 = phi ptr [ %5, %2 ], [ @_ZZN4Json5Value13nullSingletonEvE10nullStatic, %6 ], [ @_ZZN4Json5Value13nullSingletonEvE10nullStatic, %9 ], [ @_ZZN4Json5Value13nullSingletonEvE10nullStatic, %11 ]
  ret ptr %.0
}